; Function Attrs: nounwind uwtable
define internal ptr @defdict_missing(ptr noundef %0, ptr noundef %1) #0 {
  %3 = getelementptr inbounds nuw i8, ptr %0, i64 48
  %4 = load ptr, ptr %3, align 8, !tbaa !97
  %5 = icmp eq ptr %4, null
  %6 = icmp eq ptr %4, @_Py_NoneStruct
  %or.cond = or i1 %5, %6
  br i1 %or.cond, label %7, label %15

7:                                                ; preds = %2
  %8 = tail call ptr (i64, ...) @PyTuple_Pack(i64 noundef 1, ptr noundef %1) #9
  %.not = icmp eq ptr %8, null
  br i1 %.not, label %Py_DECREF.exit21, label %9

9:                                                ; preds = %7
  %10 = load ptr, ptr @PyExc_KeyError, align 8, !tbaa !21
  tail call void @PyErr_SetObject(ptr noundef %10, ptr noundef nonnull %8) #9
  %11 = load i32, ptr %8, align 8, !tbaa !20
  %.not.i20 = icmp sgt i32 %11, -1
  br i1 %.not.i20, label %12, label %Py_DECREF.exit21

12:                                               ; preds = %9
  %13 = add nsw i32 %11, -1
  store i32 %13, ptr %8, align 8, !tbaa !20
  %14 = icmp eq i32 %13, 0
  br i1 %14, label %Py_DECREF.exit21.sink.split, label %Py_DECREF.exit21

15:                                               ; preds = %2
  %16 = tail call align 8 ptr @llvm.threadlocal.address.p0(ptr align 8 @_Py_tss_tstate)
  %17 = load ptr, ptr %16, align 8, !tbaa !102
  %18 = getelementptr i8, ptr %4, i64 8
  %.val.i.i.i = load ptr, ptr %18, align 8, !tbaa !22
  %19 = getelementptr i8, ptr %.val.i.i.i, i64 168
  %.val6.i.i.i = load i64, ptr %19, align 8, !tbaa !23
  %20 = and i64 %.val6.i.i.i, 2048
  %.not.i.i.i = icmp eq i64 %20, 0
  br i1 %.not.i.i.i, label %_PyVectorcall_FunctionInline.exit.thread.i.i, label %_PyVectorcall_FunctionInline.exit.i.i

_PyVectorcall_FunctionInline.exit.i.i:            ; preds = %15
  %21 = getelementptr inbounds nuw i8, ptr %.val.i.i.i, i64 56
  %22 = load i64, ptr %21, align 8, !tbaa !104
  %23 = getelementptr i8, ptr %4, i64 %22
  %.0.copyload.i.i.i = load ptr, ptr %23, align 1
  %24 = icmp eq ptr %.0.copyload.i.i.i, null
  br i1 %24, label %_PyVectorcall_FunctionInline.exit.thread.i.i, label %26

_PyVectorcall_FunctionInline.exit.thread.i.i:     ; preds = %_PyVectorcall_FunctionInline.exit.i.i, %15
  %25 = tail call ptr @_PyObject_MakeTpCall(ptr noundef %17, ptr noundef nonnull %4, ptr noundef null, i64 noundef 0, ptr noundef null) #9
  br label %_PyObject_CallNoArgs.exit

26:                                               ; preds = %_PyVectorcall_FunctionInline.exit.i.i
  %27 = tail call ptr %.0.copyload.i.i.i(ptr noundef nonnull %4, ptr noundef null, i64 noundef 0, ptr noundef null) #9
  %28 = tail call ptr @_Py_CheckFunctionResult(ptr noundef %17, ptr noundef nonnull %4, ptr noundef %27, ptr noundef null) #9
  br label %_PyObject_CallNoArgs.exit

_PyObject_CallNoArgs.exit:                        ; preds = %_PyVectorcall_FunctionInline.exit.thread.i.i, %26
  %.0.i.i = phi ptr [ %25, %_PyVectorcall_FunctionInline.exit.thread.i.i ], [ %28, %26 ]
  %29 = icmp eq ptr %.0.i.i, null
  br i1 %29, label %Py_DECREF.exit21, label %30

30:                                               ; preds = %_PyObject_CallNoArgs.exit
  %31 = tail call i32 @PyObject_SetItem(ptr noundef nonnull %0, ptr noundef %1, ptr noundef nonnull %.0.i.i) #9
  %32 = icmp slt i32 %31, 0
  br i1 %32, label %33, label %Py_DECREF.exit21

33:                                               ; preds = %30
  %34 = load i32, ptr %.0.i.i, align 8, !tbaa !20
  %.not.i = icmp sgt i32 %34, -1
  br i1 %.not.i, label %35, label %Py_DECREF.exit21

35:                                               ; preds = %33
  %36 = add nsw i32 %34, -1
  store i32 %36, ptr %.0.i.i, align 8, !tbaa !20
  %37 = icmp eq i32 %36, 0
  br i1 %37, label %Py_DECREF.exit21.sink.split, label %Py_DECREF.exit21

Py_DECREF.exit21.sink.split:                      ; preds = %35, %12
  %.0.i.i.sink = phi ptr [ %8, %12 ], [ %.0.i.i, %35 ]
  tail call void @_Py_Dealloc(ptr noundef nonnull %.0.i.i.sink) #9
  br label %Py_DECREF.exit21

Py_DECREF.exit21:                                 ; preds = %Py_DECREF.exit21.sink.split, %35, %33, %12, %9, %30, %_PyObject_CallNoArgs.exit, %7
  %.1 = phi ptr [ null, %7 ], [ null, %_PyObject_CallNoArgs.exit ], [ %.0.i.i, %30 ], [ null, %9 ], [ null, %12 ], [ null, %33 ], [ null, %35 ], [ null, %Py_DECREF.exit21.sink.split ]
  ret ptr %.1
}